; Function Attrs: mustprogress nofree norecurse nosync nounwind willreturn memory(argmem: readwrite) uwtable
define void @aiVector3DivideByVector(ptr nocapture noundef %dst, ptr nocapture noundef readonly %v) local_unnamed_addr #12 {
entry:
  %0 = load <2 x float>, ptr %dst, align 4
  %1 = load <2 x float>, ptr %v, align 4
  %2 = fdiv <2 x float> %0, %1
  %z.i = getelementptr inbounds i8, ptr %dst, i64 8
  %3 = load float, ptr %z.i, align 4
  %z4.i = getelementptr inbounds i8, ptr %v, i64 8
  %4 = load float, ptr %z4.i, align 4
  %div5.i = fdiv float %3, %4
  store <2 x float> %2, ptr %dst, align 4
  store float %div5.i, ptr %z.i, align 4
  ret void
}